target datalayout = "e-m:e-p270:32:32-p271:32:32-p272:64:64-i64:64-i128:128-f80:128-n8:16:32:64-S128"
target triple = "x86_64-pc-linux-gnu"

%"struct.c4::detail::_MemoryResourceSingleChunk" = type <{ %"struct.c4::detail::DerivedMemoryResource", ptr, i64, i64, i8, [7 x i8] }>
%"struct.c4::detail::DerivedMemoryResource" = type { %"struct.c4::MemoryResource", ptr }
%"struct.c4::MemoryResource" = type { ptr, ptr }

; Function Attrs: mustprogress nounwind uwtable
define linkonce_odr void @_ZN2c46detail26_MemoryResourceSingleChunk5clearEv(ptr noundef nonnull align 8 dereferenceable(49) %0) #0 comdat align 2 {
  %2 = alloca ptr, align 8
  store ptr %0, ptr %2, align 8, !tbaa !49
  %3 = load ptr, ptr %2, align 8
  %4 = getelementptr inbounds nuw %"struct.c4::detail::_MemoryResourceSingleChunk", ptr %3, i32 0, i32 3
  store i64 0, ptr %4, align 8, !tbaa !61
  ret void
}

; Function Attrs: mustprogress uwtable
define void @_ZN2c46detail26_MemoryResourceSingleChunk7acquireEPvm(ptr noundef nonnull align 8 dereferenceable(49) %0, ptr noundef %1, i64 noundef %2) #1 align 2 {
  %4 = alloca ptr, align 8
  %5 = alloca ptr, align 8
  %6 = alloca i64, align 8
  store ptr %0, ptr %4, align 8, !tbaa !49
  store ptr %1, ptr %5, align 8, !tbaa !13
  store i64 %2, ptr %6, align 8, !tbaa !15
  %7 = load ptr, ptr %4, align 8
  call void @_ZN2c46detail26_MemoryResourceSingleChunk5clearEv(ptr noundef nonnull align 8 dereferenceable(49) %7)
  %8 = getelementptr inbounds nuw %"struct.c4::detail::_MemoryResourceSingleChunk", ptr %7, i32 0, i32 4
  store i8 0, ptr %8, align 8, !tbaa !57
  %9 = load ptr, ptr %5, align 8, !tbaa !13
  %10 = getelementptr inbounds nuw %"struct.c4::detail::_MemoryResourceSingleChunk", ptr %7, i32 0, i32 1
  store ptr %9, ptr %10, align 8, !tbaa !51
  %11 = load i64, ptr %6, align 8, !tbaa !15
  %12 = getelementptr inbounds nuw %"struct.c4::detail::_MemoryResourceSingleChunk", ptr %7, i32 0, i32 2
  store i64 %11, ptr %12, align 8, !tbaa !60
  %13 = getelementptr inbounds nuw %"struct.c4::detail::_MemoryResourceSingleChunk", ptr %7, i32 0, i32 3
  store i64 0, ptr %13, align 8, !tbaa !61
  ret void
}