; Function Attrs: mustprogress nofree norecurse nosync nounwind willreturn memory(argmem: write) uwtable
define void @_ZN2c46detail26_MemoryResourceSingleChunk7acquireEPvm(ptr noundef nonnull writeonly align 8 captures(none) dereferenceable(49) initializes((24, 49)) %0, ptr noundef %1, i64 noundef %2) local_unnamed_addr #10 align 2 {
  %4 = getelementptr inbounds nuw i8, ptr %0, i64 40
  %5 = getelementptr inbounds nuw i8, ptr %0, i64 48
  store i8 0, ptr %5, align 8, !tbaa !38
  %6 = getelementptr inbounds nuw i8, ptr %0, i64 24
  store ptr %1, ptr %6, align 8, !tbaa !32
  %7 = getelementptr inbounds nuw i8, ptr %0, i64 32
  store i64 %2, ptr %7, align 8, !tbaa !41
  store i64 0, ptr %4, align 8, !tbaa !44
  ret void
}